; Function Attrs: mustprogress uwtable
define dso_local void @_ZN45btReducedDeformableFaceRigidContactConstraintC2EP23btReducedDeformableBodyRKN10btSoftBody26DeformableFaceRigidContactERK19btContactSolverInfofb(ptr noundef nonnull align 8 dereferenceable(449) %this, ptr noundef %rsb, ptr noundef nonnull align 8 dereferenceable(904) %contact, ptr noundef nonnull align 4 dereferenceable(128) %infoGlobal, float noundef %dt, i1 noundef zeroext %useStrainLimiting) unnamed_addr #5 align 2 personality ptr @__gxx_personality_v0 {
entry:
  %frombool = zext i1 %useStrainLimiting to i8
  tail call void @_ZN34btDeformableRigidContactConstraintC2ERKN10btSoftBody22DeformableRigidContactERK19btContactSolverInfo(ptr noundef nonnull align 8 dereferenceable(96) %this, ptr noundef nonnull align 8 dereferenceable(848) %contact, ptr noundef nonnull align 4 dereferenceable(128) %infoGlobal)
  store ptr getelementptr inbounds ({ [16 x ptr] }, ptr @_ZTV41btReducedDeformableRigidContactConstraint, i64 0, i32 0, i64 2), ptr %this, align 8
  %m_rsb.i = getelementptr inbounds i8, ptr %this, i64 112
  store ptr %rsb, ptr %m_rsb.i, align 8
  %m_dt.i = getelementptr inbounds i8, ptr %this, i64 128
  store float %dt, ptr %m_dt.i, align 8
  %m_nodeQueryIndex.i = getelementptr inbounds i8, ptr %this, i64 100
  store i32 0, ptr %m_nodeQueryIndex.i, align 4
  %m_appliedNormalImpulse.i = getelementptr inbounds i8, ptr %this, i64 132
  store <2 x float> zeroinitializer, ptr %m_appliedNormalImpulse.i, align 4
  %m_rhs.i = getelementptr inbounds i8, ptr %this, i64 164
  store <2 x float> zeroinitializer, ptr %m_rhs.i, align 4
  %m_deformable_cfm.i = getelementptr inbounds i8, ptr %infoGlobal, i64 44
  %0 = load float, ptr %m_deformable_cfm.i, align 4
  %m_cfm.i = getelementptr inbounds i8, ptr %this, i64 176
  store float %0, ptr %m_cfm.i, align 8
  %m_cfm_friction.i = getelementptr inbounds i8, ptr %this, i64 180
  store float 0.000000e+00, ptr %m_cfm_friction.i, align 4
  %m_deformable_erp.i = getelementptr inbounds i8, ptr %infoGlobal, i64 40
  %1 = load float, ptr %m_deformable_erp.i, align 4
  %m_erp.i = getelementptr inbounds i8, ptr %this, i64 184
  store float %1, ptr %m_erp.i, align 8
  %m_erp_friction.i = getelementptr inbounds i8, ptr %this, i64 188
  store float %1, ptr %m_erp_friction.i, align 4
  %m_friction.i = getelementptr inbounds i8, ptr %infoGlobal, i64 8
  %2 = load float, ptr %m_friction.i, align 4
  %m_friction15.i = getelementptr inbounds i8, ptr %this, i64 192
  store float %2, ptr %m_friction15.i, align 8
  %m_contact.i = getelementptr inbounds i8, ptr %this, i64 88
  %3 = load ptr, ptr %m_contact.i, align 8
  %4 = load ptr, ptr %3, align 8
  %m_collisionFlags.i.i = getelementptr inbounds i8, ptr %4, i64 224
  %5 = load i32, ptr %m_collisionFlags.i.i, align 8
  %m_collideStatic.i = getelementptr inbounds i8, ptr %this, i64 96
  %6 = trunc i32 %5 to i8
  %frombool.i = and i8 %6, 1
  store i8 %frombool.i, ptr %m_collideStatic.i, align 8
  %7 = load ptr, ptr %3, align 8
  %m_internalType.i.i = getelementptr inbounds i8, ptr %7, i64 272
  %8 = load i32, ptr %m_internalType.i.i, align 8
  %cmp.i = icmp eq i32 %8, 64
  %m_collideMultibody.i = getelementptr inbounds i8, ptr %this, i64 97
  %frombool22.i = zext i1 %cmp.i to i8
  store i8 %frombool22.i, ptr %m_collideMultibody.i, align 1
  store ptr getelementptr inbounds ({ [16 x ptr] }, ptr @_ZTV45btReducedDeformableFaceRigidContactConstraint, i64 0, i32 0, i64 2), ptr %this, align 8
  %m_face = getelementptr inbounds i8, ptr %this, i64 440
  %m_face2 = getelementptr inbounds i8, ptr %contact, i64 848
  %9 = load ptr, ptr %m_face2, align 8
  store ptr %9, ptr %m_face, align 8
  %m_useStrainLimiting = getelementptr inbounds i8, ptr %this, i64 448
  store i8 %frombool, ptr %m_useStrainLimiting, align 8
  ret void
}